; Function Attrs: mustprogress nounwind uwtable
define dso_local void @_ZN4llvm9symbolize16PlainPrinterBase11printHeaderESt8optionalImE(ptr nocapture noundef nonnull readonly align 8 dereferenceable(40) %0, i64 %1, i8 %2) local_unnamed_addr #0 align 2 {
  %4 = trunc i8 %2 to i1
  br i1 %4, label %5, label %_ZN4llvm11raw_ostreamlsENS_9StringRefE.exit

5:                                                ; preds = %3
  %6 = getelementptr inbounds nuw i8, ptr %0, i64 32
  %7 = load i8, ptr %6, align 8
  %8 = trunc i8 %7 to i1
  br i1 %8, label %9, label %_ZN4llvm11raw_ostreamlsENS_9StringRefE.exit

9:                                                ; preds = %5
  %10 = getelementptr inbounds nuw i8, ptr %0, i64 8
  %11 = load ptr, ptr %10, align 8
  %12 = getelementptr inbounds nuw i8, ptr %11, i64 24
  %13 = load ptr, ptr %12, align 8
  %14 = getelementptr inbounds nuw i8, ptr %11, i64 32
  %15 = load ptr, ptr %14, align 8
  %16 = ptrtoint ptr %13 to i64
  %17 = ptrtoint ptr %15 to i64
  %18 = sub i64 %16, %17
  %19 = icmp ult i64 %18, 2
  br i1 %19, label %20, label %22

20:                                               ; preds = %9
  %21 = tail call noundef nonnull align 8 dereferenceable(48) ptr @_ZN4llvm11raw_ostream5writeEPKcm(ptr noundef nonnull align 8 dereferenceable(48) %11, ptr noundef nonnull @.str, i64 noundef 2) #17
  br label %_ZN4llvm11raw_ostreamlsEPKc.exit

22:                                               ; preds = %9
  store i16 30768, ptr %15, align 1
  %23 = load ptr, ptr %14, align 8
  %24 = getelementptr inbounds i8, ptr %23, i64 2
  store ptr %24, ptr %14, align 8
  br label %_ZN4llvm11raw_ostreamlsEPKc.exit

_ZN4llvm11raw_ostreamlsEPKc.exit:                 ; preds = %20, %22
  %25 = load ptr, ptr %10, align 8
  %26 = tail call noundef nonnull align 8 dereferenceable(48) ptr @_ZN4llvm11raw_ostream9write_hexEy(ptr noundef nonnull align 8 dereferenceable(48) %25, i64 noundef %1) #17
  %27 = getelementptr inbounds i8, ptr %0, i64 34
  %28 = load i8, ptr %27, align 2
  %29 = trunc i8 %28 to i1
  %30 = select i1 %29, ptr @.str.1, ptr @.str.2
  %31 = select i1 %29, i64 2, i64 1
  %32 = load ptr, ptr %10, align 8
  %33 = getelementptr inbounds nuw i8, ptr %32, i64 24
  %34 = load ptr, ptr %33, align 8
  %35 = getelementptr inbounds nuw i8, ptr %32, i64 32
  %36 = load ptr, ptr %35, align 8
  %37 = ptrtoint ptr %34 to i64
  %38 = ptrtoint ptr %36 to i64
  %39 = sub i64 %37, %38
  %40 = icmp ugt i64 %31, %39
  br i1 %40, label %41, label %43

41:                                               ; preds = %_ZN4llvm11raw_ostreamlsEPKc.exit
  %42 = tail call noundef nonnull align 8 dereferenceable(48) ptr @_ZN4llvm11raw_ostream5writeEPKcm(ptr noundef nonnull align 8 dereferenceable(48) %32, ptr noundef nonnull %30, i64 noundef %31) #17
  br label %_ZN4llvm11raw_ostreamlsENS_9StringRefE.exit

43:                                               ; preds = %_ZN4llvm11raw_ostreamlsEPKc.exit
  tail call void @llvm.memcpy.p0.p0.i64(ptr noundef nonnull align 1 dereferenceable(1) %36, ptr noundef nonnull align 1 dereferenceable(1) %30, i64 %31, i1 false)
  %44 = load ptr, ptr %35, align 8
  %45 = getelementptr inbounds i8, ptr %44, i64 %31
  store ptr %45, ptr %35, align 8
  br label %_ZN4llvm11raw_ostreamlsENS_9StringRefE.exit

_ZN4llvm11raw_ostreamlsENS_9StringRefE.exit:      ; preds = %43, %41, %5, %3
  ret void
}